target datalayout = "e-m:e-p270:32:32-p271:32:32-p272:64:64-i64:64-i128:128-f80:128-n8:16:32:64-S128"
target triple = "x86_64-pc-linux-gnu"

%struct.png_image_write_control = type { ptr, ptr, i32, ptr, i32, ptr, i64, ptr, ptr, i64, i64 }
%struct.png_image = type { ptr, i32, i32, i32, i32, i32, i32, i32, [64 x i8] }
%struct.png_control = type { ptr, ptr, ptr, ptr, i64, i8 }

@.str.31 = private unnamed_addr constant [37 x i8] c"png_write_image: internal call error\00", align 1

; Function Attrs: nounwind uwtable
define internal i32 @png_write_image_16bit(ptr noundef %0) #0 {
  %2 = alloca ptr, align 8
  %3 = alloca ptr, align 8
  %4 = alloca ptr, align 8
  %5 = alloca ptr, align 8
  %6 = alloca ptr, align 8
  %7 = alloca ptr, align 8
  %8 = alloca ptr, align 8
  %9 = alloca i32, align 4
  %10 = alloca i32, align 4
  %11 = alloca i32, align 4
  %12 = alloca ptr, align 8
  %13 = alloca ptr, align 8
  %14 = alloca i16, align 2
  %15 = alloca i32, align 4
  %16 = alloca i32, align 4
  %17 = alloca i16, align 2
  %18 = alloca i32, align 4
  store ptr %0, ptr %2, align 8
  %19 = load ptr, ptr %2, align 8
  store ptr %19, ptr %3, align 8
  %20 = load ptr, ptr %3, align 8
  %21 = getelementptr inbounds %struct.png_image_write_control, ptr %20, i32 0, i32 0
  %22 = load ptr, ptr %21, align 8
  store ptr %22, ptr %4, align 8
  %23 = load ptr, ptr %4, align 8
  %24 = getelementptr inbounds %struct.png_image, ptr %23, i32 0, i32 0
  %25 = load ptr, ptr %24, align 8
  %26 = getelementptr inbounds %struct.png_control, ptr %25, i32 0, i32 0
  %27 = load ptr, ptr %26, align 8
  store ptr %27, ptr %5, align 8
  %28 = load ptr, ptr %3, align 8
  %29 = getelementptr inbounds %struct.png_image_write_control, ptr %28, i32 0, i32 5
  %30 = load ptr, ptr %29, align 8
  store ptr %30, ptr %6, align 8
  %31 = load ptr, ptr %3, align 8
  %32 = getelementptr inbounds %struct.png_image_write_control, ptr %31, i32 0, i32 7
  %33 = load ptr, ptr %32, align 8
  store ptr %33, ptr %7, align 8
  %34 = load ptr, ptr %4, align 8
  %35 = getelementptr inbounds %struct.png_image, ptr %34, i32 0, i32 4
  %36 = load i32, ptr %35, align 4
  %37 = and i32 %36, 2
  %38 = icmp ne i32 %37, 0
  %39 = select i1 %38, i32 3, i32 1
  store i32 %39, ptr %9, align 4
  store i32 0, ptr %10, align 4
  %40 = load ptr, ptr %4, align 8
  %41 = getelementptr inbounds %struct.png_image, ptr %40, i32 0, i32 3
  %42 = load i32, ptr %41, align 8
  store i32 %42, ptr %11, align 4
  %43 = load ptr, ptr %4, align 8
  %44 = getelementptr inbounds %struct.png_image, ptr %43, i32 0, i32 4
  %45 = load i32, ptr %44, align 4
  %46 = and i32 %45, 1
  %47 = icmp ne i32 %46, 0
  br i1 %47, label %48, label %62

48:                                               ; preds = %1
  %49 = load ptr, ptr %4, align 8
  %50 = getelementptr inbounds %struct.png_image, ptr %49, i32 0, i32 4
  %51 = load i32, ptr %50, align 4
  %52 = and i32 %51, 32
  %53 = icmp ne i32 %52, 0
  br i1 %53, label %54, label %59

54:                                               ; preds = %48
  store i32 -1, ptr %10, align 4
  %55 = load ptr, ptr %6, align 8
  %56 = getelementptr inbounds i16, ptr %55, i32 1
  store ptr %56, ptr %6, align 8
  %57 = load ptr, ptr %7, align 8
  %58 = getelementptr inbounds i16, ptr %57, i32 1
  store ptr %58, ptr %7, align 8
  br label %61

59:                                               ; preds = %48
  %60 = load i32, ptr %9, align 4
  store i32 %60, ptr %10, align 4
  br label %61

61:                                               ; preds = %59, %54
  br label %64

62:                                               ; preds = %1
  %63 = load ptr, ptr %5, align 8
  call void @png_error(ptr noundef %63, ptr noundef @.str.31) #7
  unreachable

64:                                               ; preds = %61
  %65 = load ptr, ptr %7, align 8
  %66 = load ptr, ptr %4, align 8
  %67 = getelementptr inbounds %struct.png_image, ptr %66, i32 0, i32 2
  %68 = load i32, ptr %67, align 4
  %69 = load i32, ptr %9, align 4
  %70 = add i32 %69, 1
  %71 = mul i32 %68, %70
  %72 = zext i32 %71 to i64
  %73 = getelementptr inbounds i16, ptr %65, i64 %72
  store ptr %73, ptr %8, align 8
  br label %74

74:                                               ; preds = %167, %64
  %75 = load i32, ptr %11, align 4
  %76 = icmp ugt i32 %75, 0
  br i1 %76, label %77, label %170

77:                                               ; preds = %74
  %78 = load ptr, ptr %6, align 8
  store ptr %78, ptr %12, align 8
  %79 = load ptr, ptr %7, align 8
  store ptr %79, ptr %13, align 8
  br label %80

80:                                               ; preds = %149, %77
  %81 = load ptr, ptr %13, align 8
  %82 = load ptr, ptr %8, align 8
  %83 = icmp ult ptr %81, %82
  br i1 %83, label %84, label %154

84:                                               ; preds = %80
  %85 = load ptr, ptr %12, align 8
  %86 = load i32, ptr %10, align 4
  %87 = sext i32 %86 to i64
  %88 = getelementptr inbounds i16, ptr %85, i64 %87
  %89 = load i16, ptr %88, align 2
  store i16 %89, ptr %14, align 2
  store i32 0, ptr %15, align 4
  %90 = load i16, ptr %14, align 2
  %91 = load ptr, ptr %13, align 8
  %92 = load i32, ptr %10, align 4
  %93 = sext i32 %92 to i64
  %94 = getelementptr inbounds i16, ptr %91, i64 %93
  store i16 %90, ptr %94, align 2
  %95 = load i16, ptr %14, align 2
  %96 = zext i16 %95 to i32
  %97 = icmp sgt i32 %96, 0
  br i1 %97, label %98, label %110

98:                                               ; preds = %84
  %99 = load i16, ptr %14, align 2
  %100 = zext i16 %99 to i32
  %101 = icmp slt i32 %100, 65535
  br i1 %101, label %102, label %110

102:                                              ; preds = %98
  %103 = load i16, ptr %14, align 2
  %104 = zext i16 %103 to i32
  %105 = ashr i32 %104, 1
  %106 = add nsw i32 2147450880, %105
  %107 = load i16, ptr %14, align 2
  %108 = zext i16 %107 to i32
  %109 = sdiv i32 %106, %108
  store i32 %109, ptr %15, align 4
  br label %110

110:                                              ; preds = %102, %98, %84
  %111 = load i32, ptr %9, align 4
  store i32 %111, ptr %16, align 4
  br label %112

112:                                              ; preds = %145, %110
  %113 = load ptr, ptr %12, align 8
  %114 = getelementptr inbounds i16, ptr %113, i32 1
  store ptr %114, ptr %12, align 8
  %115 = load i16, ptr %113, align 2
  store i16 %115, ptr %17, align 2
  %116 = load i16, ptr %17, align 2
  %117 = zext i16 %116 to i32
  %118 = load i16, ptr %14, align 2
  %119 = zext i16 %118 to i32
  %120 = icmp sge i32 %117, %119
  br i1 %120, label %121, label %122

121:                                              ; preds = %112
  store i16 -1, ptr %17, align 2
  br label %141

122:                                              ; preds = %112
  %123 = load i16, ptr %17, align 2
  %124 = zext i16 %123 to i32
  %125 = icmp sgt i32 %124, 0
  br i1 %125, label %126, label %140

126:                                              ; preds = %122
  %127 = load i16, ptr %14, align 2
  %128 = zext i16 %127 to i32
  %129 = icmp slt i32 %128, 65535
  br i1 %129, label %130, label %140

130:                                              ; preds = %126
  %131 = load i16, ptr %17, align 2
  %132 = zext i16 %131 to i32
  %133 = load i32, ptr %15, align 4
  %134 = mul i32 %132, %133
  store i32 %134, ptr %18, align 4
  %135 = load i32, ptr %18, align 4
  %136 = add i32 %135, 16384
  store i32 %136, ptr %18, align 4
  %137 = load i32, ptr %18, align 4
  %138 = lshr i32 %137, 15
  %139 = trunc i32 %138 to i16
  store i16 %139, ptr %17, align 2
  br label %140

140:                                              ; preds = %130, %126, %122
  br label %141

141:                                              ; preds = %140, %121
  %142 = load i16, ptr %17, align 2
  %143 = load ptr, ptr %13, align 8
  %144 = getelementptr inbounds i16, ptr %143, i32 1
  store ptr %144, ptr %13, align 8
  store i16 %142, ptr %143, align 2
  br label %145

145:                                              ; preds = %141
  %146 = load i32, ptr %16, align 4
  %147 = add nsw i32 %146, -1
  store i32 %147, ptr %16, align 4
  %148 = icmp sgt i32 %147, 0
  br i1 %148, label %112, label %149, !llvm.loop !17

149:                                              ; preds = %145
  %150 = load ptr, ptr %12, align 8
  %151 = getelementptr inbounds i16, ptr %150, i32 1
  store ptr %151, ptr %12, align 8
  %152 = load ptr, ptr %13, align 8
  %153 = getelementptr inbounds i16, ptr %152, i32 1
  store ptr %153, ptr %13, align 8
  br label %80, !llvm.loop !18

154:                                              ; preds = %80
  %155 = load ptr, ptr %5, align 8
  %156 = load ptr, ptr %3, align 8
  %157 = getelementptr inbounds %struct.png_image_write_control, ptr %156, i32 0, i32 7
  %158 = load ptr, ptr %157, align 8
  call void @png_write_row(ptr noundef %155, ptr noundef %158)
  %159 = load ptr, ptr %3, align 8
  %160 = getelementptr inbounds %struct.png_image_write_control, ptr %159, i32 0, i32 6
  %161 = load i64, ptr %160, align 8
  %162 = trunc i64 %161 to i16
  %163 = zext i16 %162 to i64
  %164 = udiv i64 %163, 2
  %165 = load ptr, ptr %6, align 8
  %166 = getelementptr inbounds i16, ptr %165, i64 %164
  store ptr %166, ptr %6, align 8
  br label %167

167:                                              ; preds = %154
  %168 = load i32, ptr %11, align 4
  %169 = add i32 %168, -1
  store i32 %169, ptr %11, align 4
  br label %74, !llvm.loop !19

170:                                              ; preds = %74
  ret i32 1
}