; Function Attrs: nounwind uwtable
define internal noundef i32 @png_write_image_16bit(ptr nocapture noundef readonly %0) #0 {
  %2 = load ptr, ptr %0, align 8
  %3 = load ptr, ptr %2, align 8
  %4 = load ptr, ptr %3, align 8
  %5 = getelementptr inbounds i8, ptr %0, i64 56
  %6 = getelementptr inbounds i8, ptr %2, i64 20
  %7 = load i32, ptr %6, align 4
  %8 = and i32 %7, 2
  %9 = or disjoint i32 %8, 1
  %10 = and i32 %7, 1
  %.not = icmp eq i32 %10, 0
  br i1 %.not, label %64, label %11

11:                                               ; preds = %1
  %12 = getelementptr inbounds i8, ptr %2, i64 16
  %13 = load i32, ptr %12, align 8
  %14 = load ptr, ptr %5, align 8
  %15 = and i32 %7, 32
  %.not67 = icmp eq i32 %15, 0
  %16 = zext nneg i32 %9 to i64
  %.063 = select i1 %.not67, i64 %16, i64 -1
  %17 = lshr exact i32 %15, 4
  %.057.idx = zext nneg i32 %17 to i64
  %.057 = getelementptr inbounds i8, ptr %14, i64 %.057.idx
  %18 = getelementptr inbounds i8, ptr %2, i64 12
  %19 = load i32, ptr %18, align 4
  %20 = add nuw nsw i32 %8, 2
  %21 = mul i32 %19, %20
  %22 = zext i32 %21 to i64
  %23 = getelementptr inbounds i16, ptr %.057, i64 %22
  %.not6875 = icmp eq i32 %13, 0
  br i1 %.not6875, label %._crit_edge78, label %.preheader.lr.ph

.preheader.lr.ph:                                 ; preds = %11
  %.not88 = icmp eq i32 %21, 0
  %24 = getelementptr inbounds i8, ptr %0, i64 48
  br i1 %.not88, label %.preheader, label %.preheader.us.preheader

.preheader.us.preheader:                          ; preds = %.preheader.lr.ph
  %25 = getelementptr inbounds i8, ptr %0, i64 40
  %26 = load ptr, ptr %25, align 8
  %.0 = getelementptr inbounds i8, ptr %26, i64 %.057.idx
  br label %.preheader.us

.preheader.us:                                    ; preds = %.preheader.us.preheader, %._crit_edge.us
  %.177.us = phi ptr [ %62, %._crit_edge.us ], [ %.0, %.preheader.us.preheader ]
  %.06276.us = phi i32 [ %63, %._crit_edge.us ], [ %13, %.preheader.us.preheader ]
  br label %27

27:                                               ; preds = %.preheader.us, %.split71.us84
  %.05874.us = phi ptr [ %.057, %.preheader.us ], [ %51, %.split71.us84 ]
  %.06073.us = phi ptr [ %.177.us, %.preheader.us ], [ %50, %.split71.us84 ]
  %28 = getelementptr inbounds i16, ptr %.06073.us, i64 %.063
  %29 = load i16, ptr %28, align 2
  %.fr = freeze i16 %29
  %30 = getelementptr inbounds i16, ptr %.05874.us, i64 %.063
  store i16 %.fr, ptr %30, align 2
  %31 = add i16 %.fr, -1
  %or.cond.us = icmp ult i16 %31, -2
  br i1 %or.cond.us, label %.thread, label %36

.thread:                                          ; preds = %27
  %32 = zext i16 %.fr to i32
  %33 = lshr i32 %32, 1
  %34 = or disjoint i32 %33, 2147450880
  %35 = udiv i32 %34, %32
  br label %.split.us87.preheader

36:                                               ; preds = %27
  %.not89 = icmp eq i16 %.fr, -1
  br i1 %.not89, label %.split.us.us, label %.split.us87.preheader

.split.us87.preheader:                            ; preds = %.thread, %36
  %.056.us94 = phi i32 [ %35, %.thread ], [ 0, %36 ]
  br label %.split.us87

.split.us87:                                      ; preds = %.split.us87.preheader, %46
  %.161.us79 = phi ptr [ %37, %46 ], [ %.06073.us, %.split.us87.preheader ]
  %.159.us80 = phi ptr [ %47, %46 ], [ %.05874.us, %.split.us87.preheader ]
  %.055.us81 = phi i32 [ %48, %46 ], [ %9, %.split.us87.preheader ]
  %37 = getelementptr inbounds i8, ptr %.161.us79, i64 2
  %38 = load i16, ptr %.161.us79, align 2
  %39 = zext i16 %38 to i32
  %.not69.us82 = icmp ult i16 %38, %.fr
  br i1 %.not69.us82, label %40, label %46

40:                                               ; preds = %.split.us87
  %.not90 = icmp eq i16 %38, 0
  br i1 %.not90, label %46, label %41

41:                                               ; preds = %40
  %42 = mul i32 %.056.us94, %39
  %43 = add i32 %42, 16384
  %44 = lshr i32 %43, 15
  %45 = trunc i32 %44 to i16
  br label %46

46:                                               ; preds = %41, %40, %.split.us87
  %.054.us83 = phi i16 [ %45, %41 ], [ 0, %40 ], [ -1, %.split.us87 ]
  %47 = getelementptr inbounds i8, ptr %.159.us80, i64 2
  store i16 %.054.us83, ptr %.159.us80, align 2
  %48 = add nsw i32 %.055.us81, -1
  %49 = icmp sgt i32 %.055.us81, 1
  br i1 %49, label %.split.us87, label %.split71.us84, !llvm.loop !45

.split71.us84:                                    ; preds = %.split.us.us, %46
  %.us-phi.us = phi ptr [ %.161.us79, %46 ], [ %.161.us.us, %.split.us.us ]
  %.us-phi72.us = phi ptr [ %.159.us80, %46 ], [ %.159.us.us, %.split.us.us ]
  %50 = getelementptr inbounds i8, ptr %.us-phi.us, i64 4
  %51 = getelementptr inbounds i8, ptr %.us-phi72.us, i64 4
  %52 = icmp ult ptr %51, %23
  br i1 %52, label %27, label %._crit_edge.us, !llvm.loop !46

.split.us.us:                                     ; preds = %36, %.split.us.us
  %.161.us.us = phi ptr [ %53, %.split.us.us ], [ %.06073.us, %36 ]
  %.159.us.us = phi ptr [ %55, %.split.us.us ], [ %.05874.us, %36 ]
  %.055.us.us = phi i32 [ %56, %.split.us.us ], [ %9, %36 ]
  %53 = getelementptr inbounds i8, ptr %.161.us.us, i64 2
  %54 = load i16, ptr %.161.us.us, align 2
  %55 = getelementptr inbounds i8, ptr %.159.us.us, i64 2
  store i16 %54, ptr %.159.us.us, align 2
  %56 = add nsw i32 %.055.us.us, -1
  %57 = icmp sgt i32 %.055.us.us, 1
  br i1 %57, label %.split.us.us, label %.split71.us84, !llvm.loop !45

._crit_edge.us:                                   ; preds = %.split71.us84
  %58 = load ptr, ptr %5, align 8
  tail call void @png_write_row(ptr noundef %4, ptr noundef %58)
  %59 = load i64, ptr %24, align 8
  %60 = lshr i64 %59, 1
  %61 = and i64 %60, 32767
  %62 = getelementptr inbounds i16, ptr %.177.us, i64 %61
  %63 = add i32 %.06276.us, -1
  %.not68.us = icmp eq i32 %63, 0
  br i1 %.not68.us, label %._crit_edge78, label %.preheader.us, !llvm.loop !47

64:                                               ; preds = %1
  tail call void @png_error(ptr noundef %4, ptr noundef nonnull @.str.31) #16
  unreachable

.preheader:                                       ; preds = %.preheader.lr.ph, %.preheader
  %.06276 = phi i32 [ %66, %.preheader ], [ %13, %.preheader.lr.ph ]
  %65 = load ptr, ptr %5, align 8
  tail call void @png_write_row(ptr noundef %4, ptr noundef %65)
  %66 = add i32 %.06276, -1
  %.not68 = icmp eq i32 %66, 0
  br i1 %.not68, label %._crit_edge78, label %.preheader, !llvm.loop !47

._crit_edge78:                                    ; preds = %._crit_edge.us, %.preheader, %11
  ret i32 1
}